; Function Attrs: nounwind uwtable
define dso_local noundef i32 @_hash_getbuf_with_condlock_cleanup(ptr noundef %0, i32 noundef %1, i32 noundef %2) local_unnamed_addr #0 {
  %4 = icmp eq i32 %1, -1
  br i1 %4, label %5, label %8

5:                                                ; preds = %3
  %6 = tail call zeroext i1 @errstart_cold(i32 noundef 21, ptr noundef null) #9
  tail call void @llvm.assume(i1 %6)
  %7 = tail call i32 (ptr, ...) @errmsg_internal(ptr noundef nonnull @.str) #10
  tail call void @errfinish(ptr noundef nonnull @.str.1, i32 noundef 101, ptr noundef nonnull @__func__._hash_getbuf_with_condlock_cleanup) #10
  unreachable

8:                                                ; preds = %3
  %9 = tail call i32 @ReadBuffer(ptr noundef %0, i32 noundef %1) #10
  %10 = tail call zeroext i1 @ConditionalLockBufferForCleanup(i32 noundef %9) #10
  br i1 %10, label %12, label %11

11:                                               ; preds = %8
  tail call void @ReleaseBuffer(i32 noundef %9) #10
  br label %13

12:                                               ; preds = %8
  tail call void @_hash_checkpage(ptr noundef %0, i32 noundef %9, i32 noundef %2) #10
  br label %13

13:                                               ; preds = %12, %11
  %.0 = phi i32 [ %9, %12 ], [ 0, %11 ]
  ret i32 %.0
}